target datalayout = "e-m:e-p270:32:32-p271:32:32-p272:64:64-i64:64-i128:128-f80:128-n8:16:32:64-S128"
target triple = "x86_64-pc-linux-gnu"

%struct.H5O_t = type { %struct.H5C_cache_entry_t, i64, i64, i8, i64, i8, i32, i8, i8, i64, i64, i64, i64, i32, i32, i64, i64, ptr, i64, i64, i64, i64, ptr, i8, ptr }
%struct.H5C_cache_entry_t = type { ptr, i64, i64, ptr, i8, ptr, i8, i8, i8, i8, i32, i8, i8, i8, i8, i8, i32, ptr, i32, i32, i32, i32, i32, i8, i8, ptr, ptr, ptr, ptr, ptr, ptr, i8, i32, i8, i64, ptr, i64, i64, i32, i8, i32, i32, i8, ptr, ptr, ptr }
%struct.H5O_loc_t = type { ptr, i64, i8 }

@.str.4 = private unnamed_addr constant [100 x i8] c"generated/home/dtcxzyw/WorkSpace/Projects/compilers/llvm-opt-benchmark/bench/hdf5/hdf5/src/H5Oint.c\00", align 1
@H5E_OHDR_g = external global i64, align 8
@H5E_BADVALUE_g = external global i64, align 8
@H5E_LINKCOUNT_g = external global i64, align 8
@H5E_CANTDELETE_g = external global i64, align 8
@__func__.H5O_link = private unnamed_addr constant [9 x i8] c"H5O_link\00", align 1
@H5E_CANTPIN_g = external global i64, align 8
@.str.36 = private unnamed_addr constant [28 x i8] c"unable to pin object header\00", align 1
@.str.37 = private unnamed_addr constant [35 x i8] c"unable to adjust object link count\00", align 1
@H5E_CANTUNPIN_g = external global i64, align 8
@.str.38 = private unnamed_addr constant [30 x i8] c"unable to unpin object header\00", align 1
@.str.39 = private unnamed_addr constant [30 x i8] c"can't delete object from file\00", align 1
@H5E_ARGS_g = external global i64, align 8
@__func__.H5O_unpin = private unnamed_addr constant [10 x i8] c"H5O_unpin\00", align 1
@H5E_CANTDEC_g = external global i64, align 8
@.str.50 = private unnamed_addr constant [53 x i8] c"unable to decrement reference count on object header\00", align 1
@__func__.H5O__dec_rc = private unnamed_addr constant [12 x i8] c"H5O__dec_rc\00", align 1
@.str.89 = private unnamed_addr constant [22 x i8] c"invalid object header\00", align 1

; Function Attrs: nounwind uwtable
define i32 @H5O__dec_rc(ptr noundef %0) #0 {
  %2 = alloca ptr, align 8
  %3 = alloca i32, align 4
  %4 = alloca i8, align 1
  store ptr %0, ptr %2, align 8
  store i32 0, ptr %3, align 4
  store i8 0, ptr %4, align 1
  %5 = load ptr, ptr %2, align 8
  %6 = icmp ne ptr %5, null
  br i1 %6, label %22, label %7

7:                                                ; preds = %1
  br label %8

8:                                                ; preds = %7
  br label %9

9:                                                ; preds = %8
  br label %10

10:                                               ; preds = %9
  %11 = load i64, ptr @H5E_ARGS_g, align 8
  %12 = load i64, ptr @H5E_BADVALUE_g, align 8
  %13 = call i32 (ptr, ptr, i32, i64, i64, ptr, ...) @H5E_printf_stack(ptr noundef @.str.4, ptr noundef @__func__.H5O__dec_rc, i32 noundef 2778, i64 noundef %11, i64 noundef %12, ptr noundef @.str.89)
  br label %14

14:                                               ; preds = %10
  store i8 1, ptr %4, align 1
  %15 = load i8, ptr %4, align 1
  %16 = trunc i8 %15 to i1
  %17 = zext i1 %16 to i8
  store i8 %17, ptr %4, align 1
  br label %18

18:                                               ; preds = %14
  br label %19

19:                                               ; preds = %18
  store i32 -1, ptr %3, align 4
  br label %52

20:                                               ; No predecessors!
  br label %21

21:                                               ; preds = %20
  br label %22

22:                                               ; preds = %21, %1
  %23 = load ptr, ptr %2, align 8
  %24 = getelementptr inbounds %struct.H5O_t, ptr %23, i32 0, i32 4
  %25 = load i64, ptr %24, align 8
  %26 = add i64 %25, -1
  store i64 %26, ptr %24, align 8
  %27 = load ptr, ptr %2, align 8
  %28 = getelementptr inbounds %struct.H5O_t, ptr %27, i32 0, i32 4
  %29 = load i64, ptr %28, align 8
  %30 = icmp eq i64 %29, 0
  br i1 %30, label %31, label %51

31:                                               ; preds = %22
  %32 = load ptr, ptr %2, align 8
  %33 = call i32 @H5AC_unpin_entry(ptr noundef %32)
  %34 = icmp slt i32 %33, 0
  br i1 %34, label %35, label %50

35:                                               ; preds = %31
  br label %36

36:                                               ; preds = %35
  br label %37

37:                                               ; preds = %36
  br label %38

38:                                               ; preds = %37
  %39 = load i64, ptr @H5E_OHDR_g, align 8
  %40 = load i64, ptr @H5E_CANTUNPIN_g, align 8
  %41 = call i32 (ptr, ptr, i32, i64, i64, ptr, ...) @H5E_printf_stack(ptr noundef @.str.4, ptr noundef @__func__.H5O__dec_rc, i32 noundef 2786, i64 noundef %39, i64 noundef %40, ptr noundef @.str.38)
  br label %42

42:                                               ; preds = %38
  store i8 1, ptr %4, align 1
  %43 = load i8, ptr %4, align 1
  %44 = trunc i8 %43 to i1
  %45 = zext i1 %44 to i8
  store i8 %45, ptr %4, align 1
  br label %46

46:                                               ; preds = %42
  br label %47

47:                                               ; preds = %46
  store i32 -1, ptr %3, align 4
  br label %52

48:                                               ; No predecessors!
  br label %49

49:                                               ; preds = %48
  br label %50

50:                                               ; preds = %49, %31
  br label %51

51:                                               ; preds = %50, %22
  br label %52

52:                                               ; preds = %51, %47, %19
  %53 = load i32, ptr %3, align 4
  ret i32 %53
}

; Function Attrs: nounwind uwtable
define i32 @H5O_unpin(ptr noundef %0) #0 {
  %2 = alloca ptr, align 8
  %3 = alloca i32, align 4
  %4 = alloca i8, align 1
  store ptr %0, ptr %2, align 8
  store i32 0, ptr %3, align 4
  store i8 0, ptr %4, align 1
  %5 = load ptr, ptr %2, align 8
  %6 = call i32 @H5O__dec_rc(ptr noundef %5)
  %7 = icmp slt i32 %6, 0
  br i1 %7, label %8, label %23

8:                                                ; preds = %1
  br label %9

9:                                                ; preds = %8
  br label %10

10:                                               ; preds = %9
  br label %11

11:                                               ; preds = %10
  %12 = load i64, ptr @H5E_OHDR_g, align 8
  %13 = load i64, ptr @H5E_CANTDEC_g, align 8
  %14 = call i32 (ptr, ptr, i32, i64, i64, ptr, ...) @H5E_printf_stack(ptr noundef @.str.4, ptr noundef @__func__.H5O_unpin, i32 noundef 1193, i64 noundef %12, i64 noundef %13, ptr noundef @.str.50)
  br label %15

15:                                               ; preds = %11
  store i8 1, ptr %4, align 1
  %16 = load i8, ptr %4, align 1
  %17 = trunc i8 %16 to i1
  %18 = zext i1 %17 to i8
  store i8 %18, ptr %4, align 1
  br label %19

19:                                               ; preds = %15
  br label %20

20:                                               ; preds = %19
  store i32 -1, ptr %3, align 4
  br label %24

21:                                               ; No predecessors!
  br label %22

22:                                               ; preds = %21
  br label %23

23:                                               ; preds = %22, %1
  br label %24

24:                                               ; preds = %23, %20
  %25 = load i32, ptr %3, align 4
  ret i32 %25
}

; Function Attrs: nounwind uwtable
define i32 @H5O_link(ptr noundef %0, i32 noundef %1) #0 {
  %3 = alloca ptr, align 8
  %4 = alloca i32, align 4
  %5 = alloca ptr, align 8
  %6 = alloca i8, align 1
  %7 = alloca i32, align 4
  %8 = alloca i64, align 8
  %9 = alloca i8, align 1
  store ptr %0, ptr %3, align 8
  store i32 %1, ptr %4, align 4
  store ptr null, ptr %5, align 8
  store i8 0, ptr %6, align 1
  store i32 -1, ptr %7, align 4
  store i64 -1, ptr %8, align 8
  store i8 0, ptr %9, align 1
  %10 = load ptr, ptr %3, align 8
  %11 = getelementptr inbounds %struct.H5O_loc_t, ptr %10, i32 0, i32 1
  %12 = load i64, ptr %11, align 8
  call void @H5AC_tag(i64 noundef %12, ptr noundef %8)
  %13 = load ptr, ptr %3, align 8
  %14 = call ptr @H5O_pin(ptr noundef %13)
  store ptr %14, ptr %5, align 8
  %15 = icmp eq ptr null, %14
  br i1 %15, label %16, label %31

16:                                               ; preds = %2
  br label %17

17:                                               ; preds = %16
  br label %18

18:                                               ; preds = %17
  br label %19

19:                                               ; preds = %18
  %20 = load i64, ptr @H5E_OHDR_g, align 8
  %21 = load i64, ptr @H5E_CANTPIN_g, align 8
  %22 = call i32 (ptr, ptr, i32, i64, i64, ptr, ...) @H5E_printf_stack(ptr noundef @.str.4, ptr noundef @__func__.H5O_link, i32 noundef 919, i64 noundef %20, i64 noundef %21, ptr noundef @.str.36)
  br label %23

23:                                               ; preds = %19
  store i8 1, ptr %9, align 1
  %24 = load i8, ptr %9, align 1
  %25 = trunc i8 %24 to i1
  %26 = zext i1 %25 to i8
  store i8 %26, ptr %9, align 1
  br label %27

27:                                               ; preds = %23
  br label %28

28:                                               ; preds = %27
  store i32 -1, ptr %7, align 4
  br label %55

29:                                               ; No predecessors!
  br label %30

30:                                               ; preds = %29
  br label %31

31:                                               ; preds = %30, %2
  %32 = load ptr, ptr %3, align 8
  %33 = getelementptr inbounds %struct.H5O_loc_t, ptr %32, i32 0, i32 0
  %34 = load ptr, ptr %33, align 8
  %35 = load i32, ptr %4, align 4
  %36 = load ptr, ptr %5, align 8
  %37 = call i32 @H5O__link_oh(ptr noundef %34, i32 noundef %35, ptr noundef %36, ptr noundef %6)
  store i32 %37, ptr %7, align 4
  %38 = icmp slt i32 %37, 0
  br i1 %38, label %39, label %54

39:                                               ; preds = %31
  br label %40

40:                                               ; preds = %39
  br label %41

41:                                               ; preds = %40
  br label %42

42:                                               ; preds = %41
  %43 = load i64, ptr @H5E_OHDR_g, align 8
  %44 = load i64, ptr @H5E_LINKCOUNT_g, align 8
  %45 = call i32 (ptr, ptr, i32, i64, i64, ptr, ...) @H5E_printf_stack(ptr noundef @.str.4, ptr noundef @__func__.H5O_link, i32 noundef 923, i64 noundef %43, i64 noundef %44, ptr noundef @.str.37)
  br label %46

46:                                               ; preds = %42
  store i8 1, ptr %9, align 1
  %47 = load i8, ptr %9, align 1
  %48 = trunc i8 %47 to i1
  %49 = zext i1 %48 to i8
  store i8 %49, ptr %9, align 1
  br label %50

50:                                               ; preds = %46
  br label %51

51:                                               ; preds = %50
  store i32 -1, ptr %7, align 4
  br label %55

52:                                               ; No predecessors!
  br label %53

53:                                               ; preds = %52
  br label %54

54:                                               ; preds = %53, %31
  br label %55

55:                                               ; preds = %54, %51, %28
  %56 = load ptr, ptr %5, align 8
  %57 = icmp ne ptr %56, null
  br i1 %57, label %58, label %75

58:                                               ; preds = %55
  %59 = load ptr, ptr %5, align 8
  %60 = call i32 @H5O_unpin(ptr noundef %59)
  %61 = icmp slt i32 %60, 0
  br i1 %61, label %62, label %75

62:                                               ; preds = %58
  br label %63

63:                                               ; preds = %62
  br label %64

64:                                               ; preds = %63
  br label %65

65:                                               ; preds = %64
  %66 = load i64, ptr @H5E_OHDR_g, align 8
  %67 = load i64, ptr @H5E_CANTUNPIN_g, align 8
  %68 = call i32 (ptr, ptr, i32, i64, i64, ptr, ...) @H5E_printf_stack(ptr noundef @.str.4, ptr noundef @__func__.H5O_link, i32 noundef 927, i64 noundef %66, i64 noundef %67, ptr noundef @.str.38)
  br label %69

69:                                               ; preds = %65
  store i8 1, ptr %9, align 1
  %70 = load i8, ptr %9, align 1
  %71 = trunc i8 %70 to i1
  %72 = zext i1 %71 to i8
  store i8 %72, ptr %9, align 1
  br label %73

73:                                               ; preds = %69
  store i32 -1, ptr %7, align 4
  br label %74

74:                                               ; preds = %73
  br label %75

75:                                               ; preds = %74, %58, %55
  %76 = load i32, ptr %7, align 4
  %77 = icmp sge i32 %76, 0
  br i1 %77, label %78, label %103

78:                                               ; preds = %75
  %79 = load i8, ptr %6, align 1
  %80 = trunc i8 %79 to i1
  br i1 %80, label %81, label %103

81:                                               ; preds = %78
  %82 = load ptr, ptr %3, align 8
  %83 = getelementptr inbounds %struct.H5O_loc_t, ptr %82, i32 0, i32 0
  %84 = load ptr, ptr %83, align 8
  %85 = load ptr, ptr %3, align 8
  %86 = getelementptr inbounds %struct.H5O_loc_t, ptr %85, i32 0, i32 1
  %87 = load i64, ptr %86, align 8
  %88 = call i32 @H5O_delete(ptr noundef %84, i64 noundef %87)
  %89 = icmp slt i32 %88, 0
  br i1 %89, label %90, label %103

90:                                               ; preds = %81
  br label %91

91:                                               ; preds = %90
  br label %92

92:                                               ; preds = %91
  br label %93

93:                                               ; preds = %92
  %94 = load i64, ptr @H5E_OHDR_g, align 8
  %95 = load i64, ptr @H5E_CANTDELETE_g, align 8
  %96 = call i32 (ptr, ptr, i32, i64, i64, ptr, ...) @H5E_printf_stack(ptr noundef @.str.4, ptr noundef @__func__.H5O_link, i32 noundef 929, i64 noundef %94, i64 noundef %95, ptr noundef @.str.39)
  br label %97

97:                                               ; preds = %93
  store i8 1, ptr %9, align 1
  %98 = load i8, ptr %9, align 1
  %99 = trunc i8 %98 to i1
  %100 = zext i1 %99 to i8
  store i8 %100, ptr %9, align 1
  br label %101

101:                                              ; preds = %97
  store i32 -1, ptr %7, align 4
  br label %102

102:                                              ; preds = %101
  br label %103

103:                                              ; preds = %102, %81, %78, %75
  %104 = load i64, ptr %8, align 8
  call void @H5AC_tag(i64 noundef %104, ptr noundef null)
  %105 = load i32, ptr %7, align 4
  ret i32 %105
}