; Function Attrs: nounwind uwtable
define range(i32 -1, -2147483648) i32 @H5O_link(ptr nocapture noundef readonly %0, i32 noundef %1) local_unnamed_addr #1 {
  %3 = alloca i8, align 1
  %4 = alloca i64, align 8
  store i8 0, ptr %3, align 1
  store i64 -1, ptr %4, align 8
  %5 = getelementptr inbounds i8, ptr %0, i64 8
  %6 = load i64, ptr %5, align 8
  call void @H5AC_tag(i64 noundef %6, ptr noundef nonnull %4) #11
  %7 = call ptr @H5O_pin(ptr noundef %0)
  %8 = icmp eq ptr %7, null
  br i1 %8, label %17, label %9

9:                                                ; preds = %2
  %10 = load ptr, ptr %0, align 8
  %11 = call i32 @H5O__link_oh(ptr noundef %10, i32 noundef %1, ptr noundef nonnull %7, ptr noundef nonnull %3)
  %12 = icmp slt i32 %11, 0
  br i1 %12, label %13, label %21

13:                                               ; preds = %9
  %14 = load i64, ptr @H5E_OHDR_g, align 8
  %15 = load i64, ptr @H5E_LINKCOUNT_g, align 8
  %16 = call i32 (ptr, ptr, i32, i64, i64, ptr, ...) @H5E_printf_stack(ptr noundef nonnull @.str.4, ptr noundef nonnull @__func__.H5O_link, i32 noundef 923, i64 noundef %14, i64 noundef %15, ptr noundef nonnull @.str.37) #11
  br label %21

17:                                               ; preds = %2
  %18 = load i64, ptr @H5E_OHDR_g, align 8
  %19 = load i64, ptr @H5E_CANTPIN_g, align 8
  %20 = call i32 (ptr, ptr, i32, i64, i64, ptr, ...) @H5E_printf_stack(ptr noundef nonnull @.str.4, ptr noundef nonnull @__func__.H5O_link, i32 noundef 919, i64 noundef %18, i64 noundef %19, ptr noundef nonnull @.str.36) #11
  br label %.thread21

21:                                               ; preds = %13, %9
  %.0.ph = phi i32 [ %11, %9 ], [ -1, %13 ]
  %22 = getelementptr inbounds i8, ptr %7, i64 272
  %23 = load i64, ptr %22, align 8
  %24 = add i64 %23, -1
  store i64 %24, ptr %22, align 8
  %25 = icmp eq i64 %24, 0
  br i1 %25, label %26, label %39

26:                                               ; preds = %21
  %27 = call i32 @H5AC_unpin_entry(ptr noundef nonnull %7) #11
  %28 = icmp slt i32 %27, 0
  br i1 %28, label %29, label %39

29:                                               ; preds = %26
  %30 = load i64, ptr @H5E_OHDR_g, align 8
  %31 = load i64, ptr @H5E_CANTUNPIN_g, align 8
  %32 = call i32 (ptr, ptr, i32, i64, i64, ptr, ...) @H5E_printf_stack(ptr noundef nonnull @.str.4, ptr noundef nonnull @__func__.H5O__dec_rc, i32 noundef 2786, i64 noundef %30, i64 noundef %31, ptr noundef nonnull @.str.38) #11
  %33 = load i64, ptr @H5E_OHDR_g, align 8
  %34 = load i64, ptr @H5E_CANTDEC_g, align 8
  %35 = call i32 (ptr, ptr, i32, i64, i64, ptr, ...) @H5E_printf_stack(ptr noundef nonnull @.str.4, ptr noundef nonnull @__func__.H5O_unpin, i32 noundef 1193, i64 noundef %33, i64 noundef %34, ptr noundef nonnull @.str.50) #11
  %36 = load i64, ptr @H5E_OHDR_g, align 8
  %37 = load i64, ptr @H5E_CANTUNPIN_g, align 8
  %38 = call i32 (ptr, ptr, i32, i64, i64, ptr, ...) @H5E_printf_stack(ptr noundef nonnull @.str.4, ptr noundef nonnull @__func__.H5O_link, i32 noundef 927, i64 noundef %36, i64 noundef %37, ptr noundef nonnull @.str.38) #11
  br label %.thread21

39:                                               ; preds = %21, %26
  %40 = icmp sgt i32 %.0.ph, -1
  br i1 %40, label %41, label %.thread21

41:                                               ; preds = %39
  %42 = load i8, ptr %3, align 1
  %43 = trunc i8 %42 to i1
  br i1 %43, label %44, label %.thread21

44:                                               ; preds = %41
  %45 = load ptr, ptr %0, align 8
  %46 = load i64, ptr %5, align 8
  %47 = call i32 @H5O_delete(ptr noundef %45, i64 noundef %46)
  %48 = icmp slt i32 %47, 0
  br i1 %48, label %49, label %.thread21

49:                                               ; preds = %44
  %50 = load i64, ptr @H5E_OHDR_g, align 8
  %51 = load i64, ptr @H5E_CANTDELETE_g, align 8
  %52 = call i32 (ptr, ptr, i32, i64, i64, ptr, ...) @H5E_printf_stack(ptr noundef nonnull @.str.4, ptr noundef nonnull @__func__.H5O_link, i32 noundef 929, i64 noundef %50, i64 noundef %51, ptr noundef nonnull @.str.39) #11
  br label %.thread21

.thread21:                                        ; preds = %17, %29, %49, %44, %41, %39
  %.2 = phi i32 [ -1, %49 ], [ %.0.ph, %44 ], [ %.0.ph, %41 ], [ -1, %39 ], [ -1, %29 ], [ -1, %17 ]
  %53 = load i64, ptr %4, align 8
  call void @H5AC_tag(i64 noundef %53, ptr noundef null) #11
  ret i32 %.2
}